target datalayout = "e-m:e-p270:32:32-p271:32:32-p272:64:64-i64:64-i128:128-f80:128-n8:16:32:64-S128"
target triple = "x86_64-pc-linux-gnu"

%"class.VrmlTranslator::Scanner" = type { ptr, ptr, ptr, ptr, i8, i32, i32, i32, i32, %"class.VrmlTranslator::StartStates", %"class.VrmlTranslator::KeywordMap", ptr, ptr, i32, i32, ptr, ptr, i32, i32, i32, i32, i32, ptr }
%"class.VrmlTranslator::StartStates" = type { ptr, ptr }
%"class.VrmlTranslator::KeywordMap" = type { ptr, ptr }

@_ZTVN14VrmlTranslator11StartStatesE = linkonce_odr unnamed_addr constant { [4 x ptr] } { [4 x ptr] [ptr null, ptr @_ZTIN14VrmlTranslator11StartStatesE, ptr @_ZN14VrmlTranslator11StartStatesD2Ev, ptr @_ZN14VrmlTranslator11StartStatesD0Ev] }, comdat, align 8
@_ZTVN14VrmlTranslator10KeywordMapE = linkonce_odr unnamed_addr constant { [4 x ptr] } { [4 x ptr] [ptr null, ptr @_ZTIN14VrmlTranslator10KeywordMapE, ptr @_ZN14VrmlTranslator10KeywordMapD2Ev, ptr @_ZN14VrmlTranslator10KeywordMapD0Ev] }, comdat, align 8
@_ZN14VrmlTranslator6BufferC1EPKhi = unnamed_addr alias void (ptr, ptr, i32), ptr @_ZN14VrmlTranslator6BufferC2EPKhi

; Function Attrs: mustprogress uwtable
define linkonce_odr void @_ZN14VrmlTranslator10KeywordMapC2Ev(ptr noundef nonnull align 8 dereferenceable(16) %0) unnamed_addr #1 comdat align 2 {
  %2 = alloca ptr, align 8
  store ptr %0, ptr %2, align 8
  %3 = load ptr, ptr %2, align 8
  store ptr getelementptr inbounds ({ [4 x ptr] }, ptr @_ZTVN14VrmlTranslator10KeywordMapE, i32 0, i32 0, i32 2), ptr %3, align 8
  %4 = call noalias noundef nonnull ptr @_Znam(i64 noundef 1024) #14
  %5 = getelementptr inbounds %"class.VrmlTranslator::KeywordMap", ptr %3, i32 0, i32 1
  store ptr %4, ptr %5, align 8
  %6 = getelementptr inbounds %"class.VrmlTranslator::KeywordMap", ptr %3, i32 0, i32 1
  %7 = load ptr, ptr %6, align 8
  call void @llvm.memset.p0.i64(ptr align 8 %7, i8 0, i64 1024, i1 false)
  ret void
}

; Function Attrs: mustprogress uwtable
define linkonce_odr void @_ZN14VrmlTranslator11StartStatesC2Ev(ptr noundef nonnull align 8 dereferenceable(16) %0) unnamed_addr #1 comdat align 2 {
  %2 = alloca ptr, align 8
  store ptr %0, ptr %2, align 8
  %3 = load ptr, ptr %2, align 8
  store ptr getelementptr inbounds ({ [4 x ptr] }, ptr @_ZTVN14VrmlTranslator11StartStatesE, i32 0, i32 0, i32 2), ptr %3, align 8
  %4 = call noalias noundef nonnull ptr @_Znam(i64 noundef 1024) #14
  %5 = getelementptr inbounds %"class.VrmlTranslator::StartStates", ptr %3, i32 0, i32 1
  store ptr %4, ptr %5, align 8
  %6 = getelementptr inbounds %"class.VrmlTranslator::StartStates", ptr %3, i32 0, i32 1
  %7 = load ptr, ptr %6, align 8
  call void @llvm.memset.p0.i64(ptr align 8 %7, i8 0, i64 1024, i1 false)
  ret void
}

; Function Attrs: mustprogress uwtable
define void @_ZN14VrmlTranslator7ScannerC2EPKhi(ptr noundef nonnull align 8 dereferenceable(160) %0, ptr noundef %1, i32 noundef %2) unnamed_addr #1 align 2 personality ptr @__gxx_personality_v0 {
  %4 = alloca ptr, align 8
  %5 = alloca ptr, align 8
  %6 = alloca i32, align 4
  %7 = alloca ptr, align 8
  %8 = alloca i32, align 4
  store ptr %0, ptr %4, align 8
  store ptr %1, ptr %5, align 8
  store i32 %2, ptr %6, align 4
  %9 = load ptr, ptr %4, align 8
  %10 = getelementptr inbounds %"class.VrmlTranslator::Scanner", ptr %9, i32 0, i32 9
  call void @_ZN14VrmlTranslator11StartStatesC2Ev(ptr noundef nonnull align 8 dereferenceable(16) %10)
  %11 = getelementptr inbounds %"class.VrmlTranslator::Scanner", ptr %9, i32 0, i32 10
  invoke void @_ZN14VrmlTranslator10KeywordMapC2Ev(ptr noundef nonnull align 8 dereferenceable(16) %11)
          to label %12 unwind label %20

12:                                               ; preds = %3
  %13 = invoke noalias noundef nonnull ptr @_Znwm(i64 noundef 56) #14
          to label %14 unwind label %24

14:                                               ; preds = %12
  %15 = load ptr, ptr %5, align 8
  %16 = load i32, ptr %6, align 4
  invoke void @_ZN14VrmlTranslator6BufferC1EPKhi(ptr noundef nonnull align 8 dereferenceable(49) %13, ptr noundef %15, i32 noundef %16)
          to label %17 unwind label %28

17:                                               ; preds = %14
  %18 = getelementptr inbounds %"class.VrmlTranslator::Scanner", ptr %9, i32 0, i32 22
  store ptr %13, ptr %18, align 8
  invoke void @_ZN14VrmlTranslator7Scanner4InitEv(ptr noundef nonnull align 8 dereferenceable(160) %9)
          to label %19 unwind label %24

19:                                               ; preds = %17
  ret void

20:                                               ; preds = %3
  %21 = landingpad { ptr, i32 }
          cleanup
  %22 = extractvalue { ptr, i32 } %21, 0
  store ptr %22, ptr %7, align 8
  %23 = extractvalue { ptr, i32 } %21, 1
  store i32 %23, ptr %8, align 4
  br label %33

24:                                               ; preds = %17, %12
  %25 = landingpad { ptr, i32 }
          cleanup
  %26 = extractvalue { ptr, i32 } %25, 0
  store ptr %26, ptr %7, align 8
  %27 = extractvalue { ptr, i32 } %25, 1
  store i32 %27, ptr %8, align 4
  br label %32

28:                                               ; preds = %14
  %29 = landingpad { ptr, i32 }
          cleanup
  %30 = extractvalue { ptr, i32 } %29, 0
  store ptr %30, ptr %7, align 8
  %31 = extractvalue { ptr, i32 } %29, 1
  store i32 %31, ptr %8, align 4
  call void @_ZdlPv(ptr noundef %13) #13
  br label %32

32:                                               ; preds = %28, %24
  call void @_ZN14VrmlTranslator10KeywordMapD2Ev(ptr noundef nonnull align 8 dereferenceable(16) %11) #12
  br label %33

33:                                               ; preds = %32, %20
  call void @_ZN14VrmlTranslator11StartStatesD2Ev(ptr noundef nonnull align 8 dereferenceable(16) %10) #12
  br label %34

34:                                               ; preds = %33
  %35 = load ptr, ptr %7, align 8
  %36 = load i32, ptr %8, align 4
  %37 = insertvalue { ptr, i32 } poison, ptr %35, 0
  %38 = insertvalue { ptr, i32 } %37, i32 %36, 1
  resume { ptr, i32 } %38
}