; Function Attrs: mustprogress uwtable
define void @_ZN14VrmlTranslator7ScannerC2EPKhi(ptr noundef nonnull align 8 dereferenceable(160) %0, ptr noundef %1, i32 noundef %2) unnamed_addr #2 align 2 personality ptr @__gxx_personality_v0 {
  %4 = getelementptr inbounds i8, ptr %0, i64 56
  store ptr getelementptr inbounds ({ [4 x ptr] }, ptr @_ZTVN14VrmlTranslator11StartStatesE, i64 0, i32 0, i64 2), ptr %4, align 8
  %5 = tail call noalias noundef nonnull dereferenceable(1024) ptr @_Znam(i64 noundef 1024) #21
  %6 = getelementptr inbounds i8, ptr %0, i64 64
  store ptr %5, ptr %6, align 8
  tail call void @llvm.memset.p0.i64(ptr noundef nonnull align 8 dereferenceable(1024) %5, i8 0, i64 1024, i1 false)
  %7 = getelementptr inbounds i8, ptr %0, i64 72
  store ptr getelementptr inbounds ({ [4 x ptr] }, ptr @_ZTVN14VrmlTranslator10KeywordMapE, i64 0, i32 0, i64 2), ptr %7, align 8
  %8 = invoke noalias noundef nonnull dereferenceable(1024) ptr @_Znam(i64 noundef 1024) #21
          to label %9 unwind label %16

9:                                                ; preds = %3
  %10 = getelementptr inbounds i8, ptr %0, i64 80
  store ptr %8, ptr %10, align 8
  tail call void @llvm.memset.p0.i64(ptr noundef nonnull align 8 dereferenceable(1024) %8, i8 0, i64 1024, i1 false)
  %11 = invoke noalias noundef nonnull dereferenceable(56) ptr @_Znwm(i64 noundef 56) #21
          to label %12 unwind label %18

12:                                               ; preds = %9
  invoke void @_ZN14VrmlTranslator6BufferC1EPKhi(ptr noundef nonnull align 8 dereferenceable(49) %11, ptr noundef %1, i32 noundef %2)
          to label %13 unwind label %20

13:                                               ; preds = %12
  %14 = getelementptr inbounds i8, ptr %0, i64 152
  store ptr %11, ptr %14, align 8
  invoke void @_ZN14VrmlTranslator7Scanner4InitEv(ptr noundef nonnull align 8 dereferenceable(160) %0)
          to label %15 unwind label %18

15:                                               ; preds = %13
  ret void

16:                                               ; preds = %3
  %17 = landingpad { ptr, i32 }
          cleanup
  br label %23

18:                                               ; preds = %13, %9
  %19 = landingpad { ptr, i32 }
          cleanup
  br label %22

20:                                               ; preds = %12
  %21 = landingpad { ptr, i32 }
          cleanup
  tail call void @_ZdlPv(ptr noundef nonnull %11) #20
  br label %22

22:                                               ; preds = %20, %18
  %.pn = phi { ptr, i32 } [ %19, %18 ], [ %21, %20 ]
  tail call void @_ZN14VrmlTranslator10KeywordMapD2Ev(ptr noundef nonnull align 8 dereferenceable(16) %7) #22
  br label %23

23:                                               ; preds = %22, %16
  %.pn.pn = phi { ptr, i32 } [ %.pn, %22 ], [ %17, %16 ]
  tail call void @_ZN14VrmlTranslator11StartStatesD2Ev(ptr noundef nonnull align 8 dereferenceable(16) %4) #22
  resume { ptr, i32 } %.pn.pn
}